; Function Attrs: nounwind uwtable
define internal void @write_file_trailer(ptr noundef %0) #0 {
  %2 = getelementptr inbounds i8, ptr %0, i64 40
  %3 = load ptr, ptr %2, align 8
  %4 = load ptr, ptr %3, align 8
  %5 = getelementptr inbounds i8, ptr %4, i64 1
  store ptr %5, ptr %3, align 8
  store i8 -1, ptr %4, align 1
  %6 = getelementptr inbounds i8, ptr %3, i64 8
  %7 = load i64, ptr %6, align 8
  %8 = add i64 %7, -1
  store i64 %8, ptr %6, align 8
  %9 = icmp eq i64 %8, 0
  br i1 %9, label %10, label %emit_byte.exit.i

10:                                               ; preds = %1
  %11 = getelementptr inbounds i8, ptr %3, i64 24
  %12 = load ptr, ptr %11, align 8
  %13 = tail call i32 %12(ptr noundef nonnull %0) #1
  %.not.i.i = icmp eq i32 %13, 0
  br i1 %.not.i.i, label %14, label %emit_byte.exit.i

14:                                               ; preds = %10
  %15 = load ptr, ptr %0, align 8
  %16 = getelementptr inbounds i8, ptr %15, i64 40
  store i32 24, ptr %16, align 8
  %17 = load ptr, ptr %0, align 8
  %18 = load ptr, ptr %17, align 8
  tail call void %18(ptr noundef nonnull %0) #1
  br label %emit_byte.exit.i

emit_byte.exit.i:                                 ; preds = %14, %10, %1
  %19 = load ptr, ptr %2, align 8
  %20 = load ptr, ptr %19, align 8
  %21 = getelementptr inbounds i8, ptr %20, i64 1
  store ptr %21, ptr %19, align 8
  store i8 -39, ptr %20, align 1
  %22 = getelementptr inbounds i8, ptr %19, i64 8
  %23 = load i64, ptr %22, align 8
  %24 = add i64 %23, -1
  store i64 %24, ptr %22, align 8
  %25 = icmp eq i64 %24, 0
  br i1 %25, label %26, label %emit_marker.exit

26:                                               ; preds = %emit_byte.exit.i
  %27 = getelementptr inbounds i8, ptr %19, i64 24
  %28 = load ptr, ptr %27, align 8
  %29 = tail call i32 %28(ptr noundef nonnull %0) #1
  %.not.i2.i = icmp eq i32 %29, 0
  br i1 %.not.i2.i, label %30, label %emit_marker.exit

30:                                               ; preds = %26
  %31 = load ptr, ptr %0, align 8
  %32 = getelementptr inbounds i8, ptr %31, i64 40
  store i32 24, ptr %32, align 8
  %33 = load ptr, ptr %0, align 8
  %34 = load ptr, ptr %33, align 8
  tail call void %34(ptr noundef nonnull %0) #1
  br label %emit_marker.exit

emit_marker.exit:                                 ; preds = %emit_byte.exit.i, %26, %30
  ret void
}